target datalayout = "e-m:e-p270:32:32-p271:32:32-p272:64:64-i64:64-i128:128-f80:128-n8:16:32:64-S128"
target triple = "x86_64-pc-linux-gnu"

%struct.RBasic = type { i64, i64 }
%struct.rb_iseq_struct = type { i64, i64, ptr, %union.anon.13 }
%union.anon.13 = type { %struct.anon.14 }
%struct.anon.14 = type { i64, i32 }
%struct.rb_iseq_constant_body = type { i32, i32, ptr, %struct.anon.16, %struct.rb_iseq_location_struct, %struct.iseq_insn_info, ptr, ptr, ptr, ptr, ptr, ptr, %struct.anon.17, i32, i32, i32, i32, i32, i32, i32, i32, i8, %union.anon.18, ptr, ptr, ptr, i64, ptr, i64, ptr, i64 }
%struct.anon.16 = type { %struct.anon, i32, i32, i32, i32, i32, i32, i32, ptr, ptr }
%struct.anon = type { i16, [2 x i8] }
%struct.rb_iseq_location_struct = type { i64, i64, i64, i32, i32, %struct.rb_code_location_struct }
%struct.rb_code_location_struct = type { %struct.rb_code_position_struct, %struct.rb_code_position_struct }
%struct.rb_code_position_struct = type { i32, i32 }
%struct.iseq_insn_info = type { ptr, ptr, i32, ptr }
%struct.anon.17 = type { i64, i64, i64, i64, ptr }
%union.anon.18 = type { ptr }
%struct.RString = type { %struct.RBasic, i64, %union.anon.21 }
%union.anon.21 = type { %struct.anon.22 }
%struct.anon.22 = type { ptr, %union.anon.23 }
%union.anon.23 = type { i64 }
%struct.anon.24 = type { [1 x i8] }

@.str.22 = private unnamed_addr constant [9 x i8] c"%s@%s:%d\00", align 1

; Function Attrs: inlinehint nounwind sspstrong willreturn memory(read) uwtable
define internal i64 @RB_FL_TEST_RAW(i64 noundef %0, i64 noundef %1) #4 {
  %3 = alloca i64, align 8
  %4 = alloca i64, align 8
  store i64 %0, ptr %3, align 8, !tbaa !13
  store i64 %1, ptr %4, align 8, !tbaa !13
  %5 = load i64, ptr %3, align 8, !tbaa !13
  %6 = inttoptr i64 %5 to ptr
  %7 = getelementptr inbounds nuw %struct.RBasic, ptr %6, i32 0, i32 0
  %8 = load i64, ptr %7, align 8, !tbaa !107
  %9 = load i64, ptr %4, align 8, !tbaa !13
  %10 = and i64 %8, %9
  ret i64 %10
}

; Function Attrs: inlinehint nounwind sspstrong willreturn memory(read) uwtable
define internal i64 @RSTRING_LEN(i64 noundef %0) #4 {
  %2 = alloca i64, align 8
  store i64 %0, ptr %2, align 8, !tbaa !13
  %3 = load i64, ptr %2, align 8, !tbaa !13
  %4 = inttoptr i64 %3 to ptr
  %5 = getelementptr inbounds nuw %struct.RString, ptr %4, i32 0, i32 1
  %6 = load i64, ptr %5, align 8, !tbaa !114
  ret i64 %6
}

; Function Attrs: inlinehint nounwind sspstrong willreturn memory(read) uwtable
define internal zeroext i1 @RB_FL_ANY_RAW(i64 noundef %0, i64 noundef %1) #4 {
  %3 = alloca i64, align 8
  %4 = alloca i64, align 8
  store i64 %0, ptr %3, align 8, !tbaa !13
  store i64 %1, ptr %4, align 8, !tbaa !13
  %5 = load i64, ptr %3, align 8, !tbaa !13
  %6 = load i64, ptr %4, align 8, !tbaa !13
  %7 = call i64 @RB_FL_TEST_RAW(i64 noundef %5, i64 noundef %6) #25
  %8 = icmp ne i64 %7, 0
  ret i1 %8
}

; Function Attrs: inlinehint nounwind sspstrong willreturn memory(read, argmem: readwrite) uwtable
define internal void @rbimpl_rstring_getmem(ptr dead_on_unwind noalias writable sret(%struct.RString) align 8 %0, i64 noundef %1) #13 {
  %3 = alloca i64, align 8
  store i64 %1, ptr %3, align 8, !tbaa !13
  %4 = load i64, ptr %3, align 8, !tbaa !13
  %5 = call zeroext i1 @RB_FL_ANY_RAW(i64 noundef %4, i64 noundef 8192) #25
  br i1 %5, label %6, label %9

6:                                                ; preds = %2
  %7 = load i64, ptr %3, align 8, !tbaa !13
  %8 = inttoptr i64 %7 to ptr
  call void @llvm.memcpy.p0.p0.i64(ptr align 8 %0, ptr align 8 %8, i64 40, i1 false), !tbaa.struct !156
  br label %20

9:                                                ; preds = %2
  %10 = load i64, ptr %3, align 8, !tbaa !13
  %11 = call i64 @RSTRING_LEN(i64 noundef %10) #25
  %12 = getelementptr inbounds nuw %struct.RString, ptr %0, i32 0, i32 1
  store i64 %11, ptr %12, align 8, !tbaa !114
  %13 = load i64, ptr %3, align 8, !tbaa !13
  %14 = inttoptr i64 %13 to ptr
  %15 = getelementptr inbounds nuw %struct.RString, ptr %14, i32 0, i32 2
  %16 = getelementptr inbounds nuw %struct.anon.24, ptr %15, i32 0, i32 0
  %17 = getelementptr inbounds [1 x i8], ptr %16, i64 0, i64 0
  %18 = getelementptr inbounds nuw %struct.RString, ptr %0, i32 0, i32 2
  %19 = getelementptr inbounds nuw %struct.anon.22, ptr %18, i32 0, i32 0
  store ptr %17, ptr %19, align 8, !tbaa !15
  br label %20

20:                                               ; preds = %9, %6
  ret void
}

; Function Attrs: nounwind sspstrong uwtable
define internal i32 @num_digits(i32 noundef %0) #0 {
  %2 = alloca i32, align 4
  %3 = alloca i32, align 4
  store i32 %0, ptr %2, align 4, !tbaa !11
  call void @llvm.lifetime.start.p0(i64 4, ptr %3) #5
  store i32 1, ptr %3, align 4, !tbaa !11
  br label %4

4:                                                ; preds = %8, %1
  %5 = load i32, ptr %2, align 4, !tbaa !11
  %6 = sdiv i32 %5, 10
  store i32 %6, ptr %2, align 4, !tbaa !11
  %7 = icmp ne i32 %6, 0
  br i1 %7, label %8, label %11

8:                                                ; preds = %4
  %9 = load i32, ptr %3, align 4, !tbaa !11
  %10 = add i32 %9, 1
  store i32 %10, ptr %3, align 4, !tbaa !11
  br label %4, !llvm.loop !159

11:                                               ; preds = %4
  %12 = load i32, ptr %3, align 4, !tbaa !11
  call void @llvm.lifetime.end.p0(i64 4, ptr %3) #5
  ret i32 %12
}

; Function Attrs: inlinehint nounwind sspstrong uwtable
define internal ptr @RSTRING_PTR(i64 noundef %0) #7 {
  %2 = alloca i64, align 8
  %3 = alloca ptr, align 8
  %4 = alloca %struct.RString, align 8
  store i64 %0, ptr %2, align 8, !tbaa !13
  call void @llvm.lifetime.start.p0(i64 8, ptr %3) #5
  %5 = load i64, ptr %2, align 8, !tbaa !13
  call void @rbimpl_rstring_getmem(ptr dead_on_unwind writable sret(%struct.RString) align 8 %4, i64 noundef %5) #29
  %6 = getelementptr inbounds nuw %struct.RString, ptr %4, i32 0, i32 2
  %7 = getelementptr inbounds nuw %struct.anon.22, ptr %6, i32 0, i32 0
  %8 = load ptr, ptr %7, align 8, !tbaa !15
  store ptr %8, ptr %3, align 8, !tbaa !25
  %9 = load ptr, ptr %3, align 8, !tbaa !25
  call void @llvm.lifetime.end.p0(i64 8, ptr %3) #5
  ret ptr %9
}

; Function Attrs: nounwind sspstrong uwtable
define hidden ptr @rb_yjit_iseq_inspect(ptr noundef %0) #0 {
  %2 = alloca ptr, align 8
  %3 = alloca ptr, align 8
  %4 = alloca ptr, align 8
  %5 = alloca i32, align 4
  %6 = alloca ptr, align 8
  store ptr %0, ptr %2, align 8, !tbaa !87
  call void @llvm.lifetime.start.p0(i64 8, ptr %3) #5
  %7 = load ptr, ptr %2, align 8, !tbaa !87
  %8 = getelementptr inbounds nuw %struct.rb_iseq_struct, ptr %7, i32 0, i32 2
  %9 = load ptr, ptr %8, align 8, !tbaa !88
  %10 = getelementptr inbounds nuw %struct.rb_iseq_constant_body, ptr %9, i32 0, i32 4
  %11 = getelementptr inbounds nuw %struct.rb_iseq_location_struct, ptr %10, i32 0, i32 2
  %12 = load i64, ptr %11, align 8, !tbaa !157
  %13 = call ptr @RSTRING_PTR(i64 noundef %12)
  store ptr %13, ptr %3, align 8, !tbaa !25
  call void @llvm.lifetime.start.p0(i64 8, ptr %4) #5
  %14 = load ptr, ptr %2, align 8, !tbaa !87
  %15 = call i64 @rb_iseq_path(ptr noundef %14)
  %16 = call ptr @RSTRING_PTR(i64 noundef %15)
  store ptr %16, ptr %4, align 8, !tbaa !25
  call void @llvm.lifetime.start.p0(i64 4, ptr %5) #5
  %17 = load ptr, ptr %2, align 8, !tbaa !87
  %18 = getelementptr inbounds nuw %struct.rb_iseq_struct, ptr %17, i32 0, i32 2
  %19 = load ptr, ptr %18, align 8, !tbaa !88
  %20 = getelementptr inbounds nuw %struct.rb_iseq_constant_body, ptr %19, i32 0, i32 4
  %21 = getelementptr inbounds nuw %struct.rb_iseq_location_struct, ptr %20, i32 0, i32 5
  %22 = getelementptr inbounds nuw %struct.rb_code_location_struct, ptr %21, i32 0, i32 0
  %23 = getelementptr inbounds nuw %struct.rb_code_position_struct, ptr %22, i32 0, i32 0
  %24 = load i32, ptr %23, align 8, !tbaa !158
  store i32 %24, ptr %5, align 4, !tbaa !11
  call void @llvm.lifetime.start.p0(i64 8, ptr %6) #5
  %25 = load ptr, ptr %3, align 8, !tbaa !25
  %26 = call i64 @strlen(ptr noundef %25) #25
  %27 = load ptr, ptr %4, align 8, !tbaa !25
  %28 = call i64 @strlen(ptr noundef %27) #25
  %29 = add i64 %26, %28
  %30 = load i32, ptr %5, align 4, !tbaa !11
  %31 = call i32 @num_digits(i32 noundef %30)
  %32 = sext i32 %31 to i64
  %33 = add i64 %29, %32
  %34 = add i64 %33, 3
  %35 = call noalias nonnull ptr @ruby_xcalloc(i64 noundef %34, i64 noundef 1) #31
  store ptr %35, ptr %6, align 8, !tbaa !25
  %36 = load ptr, ptr %6, align 8, !tbaa !25
  %37 = load ptr, ptr %6, align 8, !tbaa !25
  %38 = call i64 @llvm.objectsize.i64.p0(ptr %37, i1 false, i1 true, i1 false)
  %39 = load ptr, ptr %3, align 8, !tbaa !25
  %40 = load ptr, ptr %4, align 8, !tbaa !25
  %41 = load i32, ptr %5, align 4, !tbaa !11
  %42 = call i32 (ptr, i32, i64, ptr, ...) @__sprintf_chk(ptr noundef %36, i32 noundef 1, i64 noundef %38, ptr noundef @.str.22, ptr noundef %39, ptr noundef %40, i32 noundef %41)
  %43 = load ptr, ptr %6, align 8, !tbaa !25
  call void @llvm.lifetime.end.p0(i64 8, ptr %6) #5
  call void @llvm.lifetime.end.p0(i64 4, ptr %5) #5
  call void @llvm.lifetime.end.p0(i64 8, ptr %4) #5
  call void @llvm.lifetime.end.p0(i64 8, ptr %3) #5
  ret ptr %43
}