; Function Attrs: nounwind sspstrong uwtable
define hidden noundef nonnull ptr @rb_yjit_iseq_inspect(ptr noundef %0) local_unnamed_addr #0 {
  %2 = getelementptr inbounds nuw i8, ptr %0, i64 16
  %3 = load ptr, ptr %2, align 8, !tbaa !94
  %4 = getelementptr inbounds nuw i8, ptr %3, i64 80
  %5 = load i64, ptr %4, align 8, !tbaa !169
  %6 = inttoptr i64 %5 to ptr
  %7 = load i64, ptr %6, align 8, !tbaa !11, !noalias !170
  %8 = and i64 %7, 8192
  %.not.i.i = icmp eq i64 %8, 0
  %9 = getelementptr inbounds nuw i8, ptr %6, i64 24
  br i1 %.not.i.i, label %RSTRING_PTR.exit, label %10

10:                                               ; preds = %1
  %.sroa.2.0.copyload.i = load ptr, ptr %9, align 8
  br label %RSTRING_PTR.exit

RSTRING_PTR.exit:                                 ; preds = %1, %10
  %.sroa.2.0.i = phi ptr [ %.sroa.2.0.copyload.i, %10 ], [ %9, %1 ]
  %11 = tail call i64 @rb_iseq_path(ptr noundef nonnull %0) #5
  %12 = inttoptr i64 %11 to ptr
  %13 = load i64, ptr %12, align 8, !tbaa !11, !noalias !173
  %14 = and i64 %13, 8192
  %.not.i.i11 = icmp eq i64 %14, 0
  %15 = getelementptr inbounds nuw i8, ptr %12, i64 24
  br i1 %.not.i.i11, label %RSTRING_PTR.exit14, label %16

16:                                               ; preds = %RSTRING_PTR.exit
  %.sroa.2.0.copyload.i12 = load ptr, ptr %15, align 8
  br label %RSTRING_PTR.exit14

RSTRING_PTR.exit14:                               ; preds = %RSTRING_PTR.exit, %16
  %.sroa.2.0.i13 = phi ptr [ %.sroa.2.0.copyload.i12, %16 ], [ %15, %RSTRING_PTR.exit ]
  %17 = load ptr, ptr %2, align 8, !tbaa !94
  %18 = getelementptr inbounds nuw i8, ptr %17, i64 96
  %19 = load i32, ptr %18, align 8, !tbaa !176
  %20 = tail call i64 @strlen(ptr noundef nonnull dereferenceable(1) %.sroa.2.0.i) #27
  %21 = tail call i64 @strlen(ptr noundef nonnull dereferenceable(1) %.sroa.2.0.i13) #27
  %.03.off5.i = add i32 %19, 9
  %.not6.i = icmp ult i32 %.03.off5.i, 19
  br i1 %.not6.i, label %num_digits.exit, label %.lr.ph.i

.lr.ph.i:                                         ; preds = %RSTRING_PTR.exit14, %.lr.ph.i
  %.08.i = phi i32 [ %23, %.lr.ph.i ], [ 1, %RSTRING_PTR.exit14 ]
  %.037.i = phi i32 [ %22, %.lr.ph.i ], [ %19, %RSTRING_PTR.exit14 ]
  %22 = sdiv i32 %.037.i, 10
  %23 = add i32 %.08.i, 1
  %.03.off.i = add nsw i32 %22, 9
  %.not.i = icmp ult i32 %.03.off.i, 19
  br i1 %.not.i, label %num_digits.exit.loopexit, label %.lr.ph.i, !llvm.loop !177

num_digits.exit.loopexit:                         ; preds = %.lr.ph.i
  %24 = sext i32 %23 to i64
  br label %num_digits.exit

num_digits.exit:                                  ; preds = %num_digits.exit.loopexit, %RSTRING_PTR.exit14
  %.0.lcssa.i = phi i64 [ 1, %RSTRING_PTR.exit14 ], [ %24, %num_digits.exit.loopexit ]
  %25 = add i64 %20, 3
  %26 = add i64 %25, %21
  %27 = add i64 %26, %.0.lcssa.i
  %28 = tail call noalias nonnull ptr @ruby_xcalloc(i64 noundef %27, i64 noundef 1) #28
  %29 = tail call i32 (ptr, i32, i64, ptr, ...) @__sprintf_chk(ptr noundef nonnull %28, i32 noundef 1, i64 noundef -1, ptr noundef nonnull @.str.22, ptr noundef nonnull %.sroa.2.0.i, ptr noundef nonnull %.sroa.2.0.i13, i32 noundef %19) #5
  ret ptr %28
}